; Function Attrs: nounwind uwtable
define range(i32 0, 2) i32 @Abc_NtkDarPrintCone(ptr noundef %0) local_unnamed_addr #1 {
  %2 = tail call ptr @Abc_NtkToDar(ptr noundef %0, i32 noundef 0, i32 noundef 1)
  %3 = icmp eq ptr %2, null
  br i1 %3, label %5, label %4

4:                                                ; preds = %1
  tail call void @Saig_ManPrintCones(ptr noundef nonnull %2) #19
  tail call void @Aig_ManStop(ptr noundef nonnull %2) #19
  br label %5

5:                                                ; preds = %1, %4
  %.0 = phi i32 [ 1, %4 ], [ 0, %1 ]
  ret i32 %.0
}